target datalayout = "e-m:e-p270:32:32-p271:32:32-p272:64:64-i64:64-i128:128-f80:128-n8:16:32:64-S128"
target triple = "x86_64-pc-linux-gnu"

%struct.anon = type { ptr }
%struct.JNINativeInterface_ = type { ptr, ptr, ptr, ptr, ptr, ptr, ptr, ptr, ptr, ptr, ptr, ptr, ptr, ptr, ptr, ptr, ptr, ptr, ptr, ptr, ptr, ptr, ptr, ptr, ptr, ptr, ptr, ptr, ptr, ptr, ptr, ptr, ptr, ptr, ptr, ptr, ptr, ptr, ptr, ptr, ptr, ptr, ptr, ptr, ptr, ptr, ptr, ptr, ptr, ptr, ptr, ptr, ptr, ptr, ptr, ptr, ptr, ptr, ptr, ptr, ptr, ptr, ptr, ptr, ptr, ptr, ptr, ptr, ptr, ptr, ptr, ptr, ptr, ptr, ptr, ptr, ptr, ptr, ptr, ptr, ptr, ptr, ptr, ptr, ptr, ptr, ptr, ptr, ptr, ptr, ptr, ptr, ptr, ptr, ptr, ptr, ptr, ptr, ptr, ptr, ptr, ptr, ptr, ptr, ptr, ptr, ptr, ptr, ptr, ptr, ptr, ptr, ptr, ptr, ptr, ptr, ptr, ptr, ptr, ptr, ptr, ptr, ptr, ptr, ptr, ptr, ptr, ptr, ptr, ptr, ptr, ptr, ptr, ptr, ptr, ptr, ptr, ptr, ptr, ptr, ptr, ptr, ptr, ptr, ptr, ptr, ptr, ptr, ptr, ptr, ptr, ptr, ptr, ptr, ptr, ptr, ptr, ptr, ptr, ptr, ptr, ptr, ptr, ptr, ptr, ptr, ptr, ptr, ptr, ptr, ptr, ptr, ptr, ptr, ptr, ptr, ptr, ptr, ptr, ptr, ptr, ptr, ptr, ptr, ptr, ptr, ptr, ptr, ptr, ptr, ptr, ptr, ptr, ptr, ptr, ptr, ptr, ptr, ptr, ptr, ptr, ptr, ptr, ptr, ptr, ptr, ptr, ptr, ptr, ptr, ptr, ptr, ptr, ptr, ptr, ptr, ptr, ptr, ptr, ptr, ptr, ptr, ptr, ptr, ptr, ptr, ptr, ptr, ptr, ptr, ptr, ptr, ptr, ptr, ptr }

@ids = internal global %struct.anon zeroinitializer, align 8

; Function Attrs: nounwind uwtable
define zeroext i8 @Java_java_io_UnixFileSystem_delete0(ptr noundef %0, ptr noundef %1, ptr noundef %2) #0 {
  %4 = alloca ptr, align 8
  %5 = alloca ptr, align 8
  %6 = alloca ptr, align 8
  %7 = alloca i8, align 1
  %8 = alloca ptr, align 8
  %9 = alloca ptr, align 8
  store ptr %0, ptr %4, align 8
  store ptr %1, ptr %5, align 8
  store ptr %2, ptr %6, align 8
  store i8 0, ptr %7, align 1
  %10 = load ptr, ptr %6, align 8
  %11 = icmp eq ptr %10, null
  br i1 %11, label %12, label %13

12:                                               ; preds = %3
  br label %22

13:                                               ; preds = %3
  %14 = load ptr, ptr %4, align 8
  %15 = load ptr, ptr %14, align 8
  %16 = getelementptr inbounds %struct.JNINativeInterface_, ptr %15, i32 0, i32 95
  %17 = load ptr, ptr %16, align 8
  %18 = load ptr, ptr %4, align 8
  %19 = load ptr, ptr %6, align 8
  %20 = load ptr, ptr @ids, align 8
  %21 = call ptr %17(ptr noundef %18, ptr noundef %19, ptr noundef %20)
  br label %22

22:                                               ; preds = %13, %12
  %23 = phi ptr [ null, %12 ], [ %21, %13 ]
  store ptr %23, ptr %9, align 8
  %24 = load ptr, ptr %9, align 8
  %25 = icmp eq ptr %24, null
  br i1 %25, label %26, label %28

26:                                               ; preds = %22
  %27 = load ptr, ptr %4, align 8
  call void @JNU_ThrowNullPointerException(ptr noundef %27, ptr noundef null)
  br label %44

28:                                               ; preds = %22
  %29 = load ptr, ptr %4, align 8
  %30 = load ptr, ptr %9, align 8
  %31 = call ptr @JNU_GetStringPlatformChars(ptr noundef %29, ptr noundef %30, ptr noundef null)
  store ptr %31, ptr %8, align 8
  %32 = load ptr, ptr %8, align 8
  %33 = icmp eq ptr %32, null
  br i1 %33, label %34, label %35

34:                                               ; preds = %28
  br label %44

35:                                               ; preds = %28
  %36 = load ptr, ptr %8, align 8
  %37 = call i32 @remove(ptr noundef %36) #6
  %38 = icmp eq i32 %37, 0
  br i1 %38, label %39, label %40

39:                                               ; preds = %35
  store i8 1, ptr %7, align 1
  br label %40

40:                                               ; preds = %39, %35
  %41 = load ptr, ptr %4, align 8
  %42 = load ptr, ptr %9, align 8
  %43 = load ptr, ptr %8, align 8
  call void @JNU_ReleaseStringPlatformChars(ptr noundef %41, ptr noundef %42, ptr noundef %43)
  br label %44

44:                                               ; preds = %40, %34, %26
  %45 = load i8, ptr %7, align 1
  ret i8 %45
}