; Function Attrs: nounwind uwtable
define zeroext range(i8 0, 2) i8 @Java_java_io_UnixFileSystem_delete0(ptr noundef %0, ptr nocapture noundef readnone %1, ptr noundef %2) local_unnamed_addr #0 {
  %4 = icmp eq ptr %2, null
  br i1 %4, label %.thread, label %5

5:                                                ; preds = %3
  %6 = load ptr, ptr %0, align 8
  %7 = getelementptr inbounds i8, ptr %6, i64 760
  %8 = load ptr, ptr %7, align 8
  %9 = load ptr, ptr @ids.0, align 8
  %10 = tail call ptr %8(ptr noundef nonnull %0, ptr noundef nonnull %2, ptr noundef %9) #7
  %11 = icmp eq ptr %10, null
  br i1 %11, label %.thread, label %12

.thread:                                          ; preds = %3, %5
  tail call void @JNU_ThrowNullPointerException(ptr noundef %0, ptr noundef null) #7
  br label %18

12:                                               ; preds = %5
  %13 = tail call ptr @JNU_GetStringPlatformChars(ptr noundef nonnull %0, ptr noundef nonnull %10, ptr noundef null) #7
  %14 = icmp eq ptr %13, null
  br i1 %14, label %18, label %15

15:                                               ; preds = %12
  %16 = tail call i32 @remove(ptr noundef nonnull %13) #7
  %17 = icmp eq i32 %16, 0
  %spec.select = zext i1 %17 to i8
  tail call void @JNU_ReleaseStringPlatformChars(ptr noundef nonnull %0, ptr noundef nonnull %10, ptr noundef nonnull %13) #7
  br label %18

18:                                               ; preds = %12, %15, %.thread
  %.1 = phi i8 [ 0, %.thread ], [ 0, %12 ], [ %spec.select, %15 ]
  ret i8 %.1
}